target datalayout = "e-m:e-p270:32:32-p271:32:32-p272:64:64-i64:64-i128:128-f80:128-n8:16:32:64-S128"
target triple = "x86_64-pc-linux-gnu"

; Function Attrs: mustprogress nounwind uwtable
define dso_local noundef double @_Z14GetLoadAveragev() #5 {
  %1 = alloca double, align 8
  %2 = alloca [3 x double], align 16
  %3 = alloca i32, align 4
  call void @llvm.lifetime.start.p0(i64 24, ptr %2) #21
  call void @llvm.memset.p0.i64(ptr align 16 %2, i8 0, i64 24, i1 false)
  %4 = getelementptr inbounds [3 x double], ptr %2, i64 0, i64 0
  %5 = call i32 @getloadavg(ptr noundef %4, i32 noundef 3) #21
  %6 = icmp slt i32 %5, 0
  br i1 %6, label %7, label %8

7:                                                ; preds = %0
  store double -0.000000e+00, ptr %1, align 8
  store i32 1, ptr %3, align 4
  br label %11

8:                                                ; preds = %0
  %9 = getelementptr inbounds [3 x double], ptr %2, i64 0, i64 0
  %10 = load double, ptr %9, align 16, !tbaa !147
  store double %10, ptr %1, align 8
  store i32 1, ptr %3, align 4
  br label %11

11:                                               ; preds = %8, %7
  call void @llvm.lifetime.end.p0(i64 24, ptr %2) #21
  %12 = load double, ptr %1, align 8
  ret double %12
}