; Function Attrs: mustprogress nounwind uwtable
define dso_local noundef double @_Z14GetLoadAveragev() local_unnamed_addr #16 {
  %1 = alloca [3 x double], align 16
  call void @llvm.lifetime.start.p0(i64 24, ptr nonnull %1) #32
  call void @llvm.memset.p0.i64(ptr noundef nonnull align 16 dereferenceable(24) %1, i8 0, i64 24, i1 false)
  %2 = call i32 @getloadavg(ptr noundef nonnull %1, i32 noundef 3) #32
  %3 = icmp slt i32 %2, 0
  %4 = load double, ptr %1, align 16
  %.0 = select i1 %3, double -0.000000e+00, double %4
  call void @llvm.lifetime.end.p0(i64 24, ptr nonnull %1) #32
  ret double %.0
}